#include <math.h>
#include <stdio.h>
#include <stdlib.h>
#include <string.h>

int main()
{
	int n,j,i,a[10000],b[20];
	scanf("%d",&n);
	for(i=0;i<n;i++){
		scanf("%d",&a[i]);
	}
	for(j=0;j<n;j++){
	  for(i=0;i<a[j];i++){
		if(i==0||i==1){
			b[i]=1;
		}else{
			b[i]=b[i-2]+b[i-1];
		}
	  }
	  printf("%d\n",b[a[j]-1]);
	}
	return 0;
}